; ModuleID = 'source-C-CXX/60/1399.cpp'
source_filename = "source-C-CXX/60/1399.cpp"
target datalayout = "e-m:e-p270:32:32-p271:32:32-p272:64:64-i64:64-f80:128-n8:16:32:64-S128"
target triple = "x86_64-pc-linux-gnu"

%"class.std::ios_base::Init" = type { i8 }
%"class.std::basic_istream" = type { i32 (...)**, i64, %"class.std::basic_ios" }
%"class.std::basic_ios" = type { %"class.std::ios_base", %"class.std::basic_ostream"*, i8, i8, %"class.std::basic_streambuf"*, %"class.std::ctype"*, %"class.std::num_put"*, %"class.std::num_get"* }
%"class.std::ios_base" = type { i32 (...)**, i64, i64, i32, i32, i32, %"struct.std::ios_base::_Callback_list"*, %"struct.std::ios_base::_Words", [8 x %"struct.std::ios_base::_Words"], i32, %"struct.std::ios_base::_Words"*, %"class.std::locale" }
%"struct.std::ios_base::_Callback_list" = type { %"struct.std::ios_base::_Callback_list"*, void (i32, %"class.std::ios_base"*, i32)*, i32, i32 }
%"struct.std::ios_base::_Words" = type { i8*, i64 }
%"class.std::locale" = type { %"class.std::locale::_Impl"* }
%"class.std::locale::_Impl" = type { i32, %"class.std::locale::facet"**, i64, %"class.std::locale::facet"**, i8** }
%"class.std::locale::facet" = type <{ i32 (...)**, i32, [4 x i8] }>
%"class.std::basic_ostream" = type { i32 (...)**, %"class.std::basic_ios" }
%"class.std::basic_streambuf" = type { i32 (...)**, i8*, i8*, i8*, i8*, i8*, i8*, %"class.std::locale" }
%"class.std::ctype" = type <{ %"class.std::locale::facet.base", [4 x i8], %struct.__locale_struct*, i8, [7 x i8], i32*, i32*, i16*, i8, [256 x i8], [256 x i8], i8, [6 x i8] }>
%"class.std::locale::facet.base" = type <{ i32 (...)**, i32 }>
%struct.__locale_struct = type { [13 x %struct.__locale_data*], i16*, i32*, i32*, [13 x i8*] }
%struct.__locale_data = type opaque
%"class.std::num_put" = type { %"class.std::locale::facet.base", [4 x i8] }
%"class.std::num_get" = type { %"class.std::locale::facet.base", [4 x i8] }

@_ZStL8__ioinit = internal global %"class.std::ios_base::Init" zeroinitializer, align 1
@__dso_handle = external hidden global i8
@_ZSt3cin = external global %"class.std::basic_istream", align 8
@_ZSt4cout = external global %"class.std::basic_ostream", align 8
@llvm.global_ctors = appending global [1 x { i32, void ()*, i8* }] [{ i32, void ()*, i8* } { i32 65535, void ()* @_GLOBAL__sub_I_1399.cpp, i8* null }]

declare void @_ZNSt8ios_base4InitC1Ev(%"class.std::ios_base::Init"* nonnull align 1 dereferenceable(1)) unnamed_addr #0

; Function Attrs: nounwind
declare void @_ZNSt8ios_base4InitD1Ev(%"class.std::ios_base::Init"* nonnull align 1 dereferenceable(1)) unnamed_addr #1

; Function Attrs: nofree nounwind
declare i32 @__cxa_atexit(void (i8*)*, i8*, i8*) local_unnamed_addr #2

; Function Attrs: mustprogress norecurse sspstrong uwtable
define dso_local i32 @main() local_unnamed_addr #3 {
  %1 = alloca i32, align 4
  %2 = alloca i32, align 4
  %3 = alloca [30 x i32], align 16
  %4 = bitcast i32* %1 to i8*
  call void @llvm.lifetime.start.p0i8(i64 4, i8* nonnull %4) #8
  %5 = bitcast i32* %2 to i8*
  call void @llvm.lifetime.start.p0i8(i64 4, i8* nonnull %5) #8
  %6 = call nonnull align 8 dereferenceable(16) %"class.std::basic_istream"* @_ZNSirsERi(%"class.std::basic_istream"* nonnull align 8 dereferenceable(16) @_ZSt3cin, i32* nonnull align 4 dereferenceable(4) %1)
  %7 = bitcast [30 x i32]* %3 to i8*
  %8 = getelementptr inbounds [30 x i32], [30 x i32]* %3, i64 0, i64 0
  %9 = getelementptr inbounds [30 x i32], [30 x i32]* %3, i64 0, i64 1
  %10 = load i32, i32* %1, align 4, !tbaa !5
  %11 = icmp slt i32 %10, 1
  br i1 %11, label %114, label %12

12:                                               ; preds = %0
  %13 = getelementptr inbounds [30 x i32], [30 x i32]* %3, i64 0, i64 2
  br label %14

14:                                               ; preds = %12, %107
  %15 = phi i32 [ %111, %107 ], [ 1, %12 ]
  call void @llvm.lifetime.start.p0i8(i64 120, i8* nonnull %7) #8
  call void @llvm.memset.p0i8.i64(i8* noundef nonnull align 16 dereferenceable(120) %7, i8 0, i64 120, i1 false)
  store i32 1, i32* %8, align 16
  store i32 1, i32* %9, align 4
  %16 = call nonnull align 8 dereferenceable(16) %"class.std::basic_istream"* @_ZNSirsERi(%"class.std::basic_istream"* nonnull align 8 dereferenceable(16) @_ZSt3cin, i32* nonnull align 4 dereferenceable(4) %2)
  %17 = load i32, i32* %2, align 4, !tbaa !5
  %18 = icmp sgt i32 %17, 2
  br i1 %18, label %19, label %76

19:                                               ; preds = %14
  %20 = zext i32 %17 to i64
  store i32 2, i32* %13, align 8, !tbaa !5
  %21 = icmp eq i32 %17, 3
  br i1 %21, label %76, label %22, !llvm.loop !9

22:                                               ; preds = %19
  %23 = add nsw i64 %20, -3
  %24 = add nsw i64 %20, -4
  %25 = and i64 %23, 3
  %26 = icmp ult i64 %24, 3
  br i1 %26, label %58, label %27

27:                                               ; preds = %22
  %28 = and i64 %23, -4
  br label %29

29:                                               ; preds = %29, %27
  %30 = phi i64 [ 3, %27 ], [ %55, %29 ]
  %31 = phi i32 [ 2, %27 ], [ %53, %29 ]
  %32 = phi i64 [ 2, %27 ], [ %50, %29 ]
  %33 = phi i64 [ %28, %27 ], [ %56, %29 ]
  %34 = add nsw i64 %32, -1
  %35 = getelementptr inbounds [30 x i32], [30 x i32]* %3, i64 0, i64 %34
  %36 = load i32, i32* %35, align 4, !tbaa !5
  %37 = add nsw i32 %36, %31
  %38 = getelementptr inbounds [30 x i32], [30 x i32]* %3, i64 0, i64 %30
  store i32 %37, i32* %38, align 4, !tbaa !5
  %39 = add nuw nsw i64 %30, 1
  %40 = add nsw i64 %30, -1
  %41 = getelementptr inbounds [30 x i32], [30 x i32]* %3, i64 0, i64 %40
  %42 = load i32, i32* %41, align 4, !tbaa !5
  %43 = add nsw i32 %42, %37
  %44 = getelementptr inbounds [30 x i32], [30 x i32]* %3, i64 0, i64 %39
  store i32 %43, i32* %44, align 4, !tbaa !5
  %45 = add nuw nsw i64 %30, 2
  %46 = getelementptr inbounds [30 x i32], [30 x i32]* %3, i64 0, i64 %30
  %47 = load i32, i32* %46, align 4, !tbaa !5
  %48 = add nsw i32 %47, %43
  %49 = getelementptr inbounds [30 x i32], [30 x i32]* %3, i64 0, i64 %45
  store i32 %48, i32* %49, align 4, !tbaa !5
  %50 = add nuw nsw i64 %30, 3
  %51 = getelementptr inbounds [30 x i32], [30 x i32]* %3, i64 0, i64 %39
  %52 = load i32, i32* %51, align 4, !tbaa !5
  %53 = add nsw i32 %52, %48
  %54 = getelementptr inbounds [30 x i32], [30 x i32]* %3, i64 0, i64 %50
  store i32 %53, i32* %54, align 4, !tbaa !5
  %55 = add nuw nsw i64 %30, 4
  %56 = add i64 %33, -4
  %57 = icmp eq i64 %56, 0
  br i1 %57, label %58, label %29, !llvm.loop !9

58:                                               ; preds = %29, %22
  %59 = phi i64 [ 3, %22 ], [ %55, %29 ]
  %60 = phi i32 [ 2, %22 ], [ %53, %29 ]
  %61 = phi i64 [ 2, %22 ], [ %50, %29 ]
  %62 = icmp eq i64 %25, 0
  br i1 %62, label %76, label %63

63:                                               ; preds = %58, %63
  %64 = phi i64 [ %73, %63 ], [ %59, %58 ]
  %65 = phi i32 [ %71, %63 ], [ %60, %58 ]
  %66 = phi i64 [ %64, %63 ], [ %61, %58 ]
  %67 = phi i64 [ %74, %63 ], [ %25, %58 ]
  %68 = add nsw i64 %66, -1
  %69 = getelementptr inbounds [30 x i32], [30 x i32]* %3, i64 0, i64 %68
  %70 = load i32, i32* %69, align 4, !tbaa !5
  %71 = add nsw i32 %70, %65
  %72 = getelementptr inbounds [30 x i32], [30 x i32]* %3, i64 0, i64 %64
  store i32 %71, i32* %72, align 4, !tbaa !5
  %73 = add nuw nsw i64 %64, 1
  %74 = add i64 %67, -1
  %75 = icmp eq i64 %74, 0
  br i1 %75, label %76, label %63, !llvm.loop !11

76:                                               ; preds = %58, %63, %19, %14
  %77 = add nsw i32 %17, -1
  %78 = sext i32 %77 to i64
  %79 = getelementptr inbounds [30 x i32], [30 x i32]* %3, i64 0, i64 %78
  %80 = load i32, i32* %79, align 4, !tbaa !5
  %81 = call nonnull align 8 dereferenceable(8) %"class.std::basic_ostream"* @_ZNSolsEi(%"class.std::basic_ostream"* nonnull align 8 dereferenceable(8) @_ZSt4cout, i32 %80)
  %82 = bitcast %"class.std::basic_ostream"* %81 to i8**
  %83 = load i8*, i8** %82, align 8, !tbaa !13
  %84 = getelementptr i8, i8* %83, i64 -24
  %85 = bitcast i8* %84 to i64*
  %86 = load i64, i64* %85, align 8
  %87 = bitcast %"class.std::basic_ostream"* %81 to i8*
  %88 = add nsw i64 %86, 240
  %89 = getelementptr inbounds i8, i8* %87, i64 %88
  %90 = bitcast i8* %89 to %"class.std::ctype"**
  %91 = load %"class.std::ctype"*, %"class.std::ctype"** %90, align 8, !tbaa !15
  %92 = icmp eq %"class.std::ctype"* %91, null
  br i1 %92, label %93, label %94

93:                                               ; preds = %76
  call void @_ZSt16__throw_bad_castv() #9
  unreachable

94:                                               ; preds = %76
  %95 = getelementptr inbounds %"class.std::ctype", %"class.std::ctype"* %91, i64 0, i32 8
  %96 = load i8, i8* %95, align 8, !tbaa !19
  %97 = icmp eq i8 %96, 0
  br i1 %97, label %101, label %98

98:                                               ; preds = %94
  %99 = getelementptr inbounds %"class.std::ctype", %"class.std::ctype"* %91, i64 0, i32 9, i64 10
  %100 = load i8, i8* %99, align 1, !tbaa !21
  br label %107

101:                                              ; preds = %94
  call void @_ZNKSt5ctypeIcE13_M_widen_initEv(%"class.std::ctype"* nonnull align 8 dereferenceable(570) %91)
  %102 = bitcast %"class.std::ctype"* %91 to i8 (%"class.std::ctype"*, i8)***
  %103 = load i8 (%"class.std::ctype"*, i8)**, i8 (%"class.std::ctype"*, i8)*** %102, align 8, !tbaa !13
  %104 = getelementptr inbounds i8 (%"class.std::ctype"*, i8)*, i8 (%"class.std::ctype"*, i8)** %103, i64 6
  %105 = load i8 (%"class.std::ctype"*, i8)*, i8 (%"class.std::ctype"*, i8)** %104, align 8
  %106 = call signext i8 %105(%"class.std::ctype"* nonnull align 8 dereferenceable(570) %91, i8 signext 10)
  br label %107

107:                                              ; preds = %98, %101
  %108 = phi i8 [ %100, %98 ], [ %106, %101 ]
  %109 = call nonnull align 8 dereferenceable(8) %"class.std::basic_ostream"* @_ZNSo3putEc(%"class.std::basic_ostream"* nonnull align 8 dereferenceable(8) %81, i8 signext %108)
  %110 = call nonnull align 8 dereferenceable(8) %"class.std::basic_ostream"* @_ZNSo5flushEv(%"class.std::basic_ostream"* nonnull align 8 dereferenceable(8) %109)
  call void @llvm.lifetime.end.p0i8(i64 120, i8* nonnull %7) #8
  %111 = add nuw nsw i32 %15, 1
  %112 = load i32, i32* %1, align 4, !tbaa !5
  %113 = icmp slt i32 %15, %112
  br i1 %113, label %14, label %114, !llvm.loop !22

114:                                              ; preds = %107, %0
  call void @llvm.lifetime.end.p0i8(i64 4, i8* nonnull %5) #8
  call void @llvm.lifetime.end.p0i8(i64 4, i8* nonnull %4) #8
  ret i32 0
}

; Function Attrs: argmemonly mustprogress nofree nosync nounwind willreturn
declare void @llvm.lifetime.start.p0i8(i64 immarg, i8* nocapture) #4

declare nonnull align 8 dereferenceable(16) %"class.std::basic_istream"* @_ZNSirsERi(%"class.std::basic_istream"* nonnull align 8 dereferenceable(16), i32* nonnull align 4 dereferenceable(4)) local_unnamed_addr #0

; Function Attrs: argmemonly mustprogress nofree nounwind willreturn writeonly
declare void @llvm.memset.p0i8.i64(i8* nocapture writeonly, i8, i64, i1 immarg) #5

declare nonnull align 8 dereferenceable(8) %"class.std::basic_ostream"* @_ZNSolsEi(%"class.std::basic_ostream"* nonnull align 8 dereferenceable(8), i32) local_unnamed_addr #0

; Function Attrs: argmemonly mustprogress nofree nosync nounwind willreturn
declare void @llvm.lifetime.end.p0i8(i64 immarg, i8* nocapture) #4

declare nonnull align 8 dereferenceable(8) %"class.std::basic_ostream"* @_ZNSo3putEc(%"class.std::basic_ostream"* nonnull align 8 dereferenceable(8), i8 signext) local_unnamed_addr #0

declare nonnull align 8 dereferenceable(8) %"class.std::basic_ostream"* @_ZNSo5flushEv(%"class.std::basic_ostream"* nonnull align 8 dereferenceable(8)) local_unnamed_addr #0

; Function Attrs: noreturn
declare void @_ZSt16__throw_bad_castv() local_unnamed_addr #6

declare void @_ZNKSt5ctypeIcE13_M_widen_initEv(%"class.std::ctype"* nonnull align 8 dereferenceable(570)) local_unnamed_addr #0

; Function Attrs: sspstrong uwtable
define internal void @_GLOBAL__sub_I_1399.cpp() #7 section ".text.startup" {
  tail call void @_ZNSt8ios_base4InitC1Ev(%"class.std::ios_base::Init"* nonnull align 1 dereferenceable(1) @_ZStL8__ioinit)
  %1 = tail call i32 @__cxa_atexit(void (i8*)* bitcast (void (%"class.std::ios_base::Init"*)* @_ZNSt8ios_base4InitD1Ev to void (i8*)*), i8* getelementptr inbounds (%"class.std::ios_base::Init", %"class.std::ios_base::Init"* @_ZStL8__ioinit, i64 0, i32 0), i8* nonnull @__dso_handle) #8
  ret void
}


!llvm.module.flags = !{!0, !1, !2, !3}
!llvm.ident = !{!4}

!0 = !{i32 1, !"wchar_size", i32 4}
!1 = !{i32 7, !"PIC Level", i32 2}
!2 = !{i32 7, !"PIE Level", i32 2}
!3 = !{i32 7, !"uwtable", i32 1}
!4 = !{!"clang version 13.0.0"}
!5 = !{!6, !6, i64 0}
!6 = !{!"int", !7, i64 0}
!7 = !{!"omnipotent char", !8, i64 0}
!8 = !{!"Simple C++ TBAA"}
!9 = distinct !{!9, !10}
!10 = !{!"llvm.loop.mustprogress"}
!11 = distinct !{!11, !12}
!12 = !{!"llvm.loop.unroll.disable"}
!13 = !{!14, !14, i64 0}
!14 = !{!"vtable pointer", !8, i64 0}
!15 = !{!16, !17, i64 240}
!16 = !{!"_ZTSSt9basic_iosIcSt11char_traitsIcEE", !17, i64 216, !7, i64 224, !18, i64 225, !17, i64 232, !17, i64 240, !17, i64 248, !17, i64 256}
!17 = !{!"any pointer", !7, i64 0}
!18 = !{!"bool", !7, i64 0}
!19 = !{!20, !7, i64 56}
!20 = !{!"_ZTSSt5ctypeIcE", !17, i64 16, !18, i64 24, !17, i64 32, !17, i64 40, !17, i64 48, !7, i64 56, !7, i64 57, !7, i64 313, !7, i64 569}
!21 = !{!7, !7, i64 0}
!22 = distinct !{!22, !10}
